target datalayout = "e-m:e-p270:32:32-p271:32:32-p272:64:64-i64:64-i128:128-f80:128-n8:16:32:64-S128"
target triple = "x86_64-unknown-linux-gnu"

%"struct.euf::dependent_eq" = type { ptr, ptr, %class.obj_ref, ptr }
%class.obj_ref = type { ptr, ptr }
%"struct.__gnu_cxx::__ops::_Iter_comp_iter" = type { %class.anon.46 }
%class.anon.46 = type { i8 }

; Function Attrs: mustprogress uwtable
define internal void @"_ZSt22__stable_sort_adaptiveIPN3euf12dependent_eqES2_lN9__gnu_cxx5__ops15_Iter_comp_iterIZNS0_17solve_context_eqs25collect_nested_equalitiesER6vectorIS1_Lb1EjEE3$_0EEEvT_SC_T0_T1_T2_"(ptr noundef %__first, ptr noundef %__last, ptr noundef %__buffer, i64 noundef %__buffer_size) #4 {
entry:
  %__comp = alloca %"struct.__gnu_cxx::__ops::_Iter_comp_iter", align 1
  %__first.addr = alloca ptr, align 8
  %__last.addr = alloca ptr, align 8
  %__buffer.addr = alloca ptr, align 8
  %__buffer_size.addr = alloca i64, align 8
  %__len = alloca i64, align 8
  %__middle = alloca ptr, align 8
  %agg.tmp = alloca %"struct.__gnu_cxx::__ops::_Iter_comp_iter", align 1
  %agg.tmp1 = alloca %"struct.__gnu_cxx::__ops::_Iter_comp_iter", align 1
  %agg.tmp2 = alloca %"struct.__gnu_cxx::__ops::_Iter_comp_iter", align 1
  %agg.tmp3 = alloca %"struct.__gnu_cxx::__ops::_Iter_comp_iter", align 1
  %agg.tmp12 = alloca %"struct.__gnu_cxx::__ops::_Iter_comp_iter", align 1
  store ptr %__first, ptr %__first.addr, align 8
  store ptr %__last, ptr %__last.addr, align 8
  store ptr %__buffer, ptr %__buffer.addr, align 8
  store i64 %__buffer_size, ptr %__buffer_size.addr, align 8
  %0 = load ptr, ptr %__last.addr, align 8
  %1 = load ptr, ptr %__first.addr, align 8
  %sub.ptr.lhs.cast = ptrtoint ptr %0 to i64
  %sub.ptr.rhs.cast = ptrtoint ptr %1 to i64
  %sub.ptr.sub = sub i64 %sub.ptr.lhs.cast, %sub.ptr.rhs.cast
  %sub.ptr.div = sdiv exact i64 %sub.ptr.sub, 40
  %add = add nsw i64 %sub.ptr.div, 1
  %div = sdiv i64 %add, 2
  store i64 %div, ptr %__len, align 8
  %2 = load ptr, ptr %__first.addr, align 8
  %3 = load i64, ptr %__len, align 8
  %add.ptr = getelementptr inbounds %"struct.euf::dependent_eq", ptr %2, i64 %3
  store ptr %add.ptr, ptr %__middle, align 8
  %4 = load i64, ptr %__len, align 8
  %5 = load i64, ptr %__buffer_size.addr, align 8
  %cmp = icmp sgt i64 %4, %5
  br i1 %cmp, label %if.then, label %if.else

if.then:                                          ; preds = %entry
  %6 = load ptr, ptr %__first.addr, align 8
  %7 = load ptr, ptr %__middle, align 8
  %8 = load ptr, ptr %__buffer.addr, align 8
  %9 = load i64, ptr %__buffer_size.addr, align 8
  call void @llvm.memcpy.p0.p0.i64(ptr align 1 %agg.tmp, ptr align 1 %__comp, i64 1, i1 false)
  call void @"_ZSt22__stable_sort_adaptiveIPN3euf12dependent_eqES2_lN9__gnu_cxx5__ops15_Iter_comp_iterIZNS0_17solve_context_eqs25collect_nested_equalitiesER6vectorIS1_Lb1EjEE3$_0EEEvT_SC_T0_T1_T2_"(ptr noundef %6, ptr noundef %7, ptr noundef %8, i64 noundef %9)
  %10 = load ptr, ptr %__middle, align 8
  %11 = load ptr, ptr %__last.addr, align 8
  %12 = load ptr, ptr %__buffer.addr, align 8
  %13 = load i64, ptr %__buffer_size.addr, align 8
  call void @llvm.memcpy.p0.p0.i64(ptr align 1 %agg.tmp1, ptr align 1 %__comp, i64 1, i1 false)
  call void @"_ZSt22__stable_sort_adaptiveIPN3euf12dependent_eqES2_lN9__gnu_cxx5__ops15_Iter_comp_iterIZNS0_17solve_context_eqs25collect_nested_equalitiesER6vectorIS1_Lb1EjEE3$_0EEEvT_SC_T0_T1_T2_"(ptr noundef %10, ptr noundef %11, ptr noundef %12, i64 noundef %13)
  br label %if.end

if.else:                                          ; preds = %entry
  %14 = load ptr, ptr %__first.addr, align 8
  %15 = load ptr, ptr %__middle, align 8
  %16 = load ptr, ptr %__buffer.addr, align 8
  call void @llvm.memcpy.p0.p0.i64(ptr align 1 %agg.tmp2, ptr align 1 %__comp, i64 1, i1 false)
  call void @"_ZSt24__merge_sort_with_bufferIPN3euf12dependent_eqES2_N9__gnu_cxx5__ops15_Iter_comp_iterIZNS0_17solve_context_eqs25collect_nested_equalitiesER6vectorIS1_Lb1EjEE3$_0EEEvT_SC_T0_T1_"(ptr noundef %14, ptr noundef %15, ptr noundef %16)
  %17 = load ptr, ptr %__middle, align 8
  %18 = load ptr, ptr %__last.addr, align 8
  %19 = load ptr, ptr %__buffer.addr, align 8
  call void @llvm.memcpy.p0.p0.i64(ptr align 1 %agg.tmp3, ptr align 1 %__comp, i64 1, i1 false)
  call void @"_ZSt24__merge_sort_with_bufferIPN3euf12dependent_eqES2_N9__gnu_cxx5__ops15_Iter_comp_iterIZNS0_17solve_context_eqs25collect_nested_equalitiesER6vectorIS1_Lb1EjEE3$_0EEEvT_SC_T0_T1_"(ptr noundef %17, ptr noundef %18, ptr noundef %19)
  br label %if.end

if.end:                                           ; preds = %if.else, %if.then
  %20 = load ptr, ptr %__first.addr, align 8
  %21 = load ptr, ptr %__middle, align 8
  %22 = load ptr, ptr %__last.addr, align 8
  %23 = load ptr, ptr %__middle, align 8
  %24 = load ptr, ptr %__first.addr, align 8
  %sub.ptr.lhs.cast4 = ptrtoint ptr %23 to i64
  %sub.ptr.rhs.cast5 = ptrtoint ptr %24 to i64
  %sub.ptr.sub6 = sub i64 %sub.ptr.lhs.cast4, %sub.ptr.rhs.cast5
  %sub.ptr.div7 = sdiv exact i64 %sub.ptr.sub6, 40
  %25 = load ptr, ptr %__last.addr, align 8
  %26 = load ptr, ptr %__middle, align 8
  %sub.ptr.lhs.cast8 = ptrtoint ptr %25 to i64
  %sub.ptr.rhs.cast9 = ptrtoint ptr %26 to i64
  %sub.ptr.sub10 = sub i64 %sub.ptr.lhs.cast8, %sub.ptr.rhs.cast9
  %sub.ptr.div11 = sdiv exact i64 %sub.ptr.sub10, 40
  %27 = load ptr, ptr %__buffer.addr, align 8
  %28 = load i64, ptr %__buffer_size.addr, align 8
  call void @llvm.memcpy.p0.p0.i64(ptr align 1 %agg.tmp12, ptr align 1 %__comp, i64 1, i1 false)
  call void @"_ZSt16__merge_adaptiveIPN3euf12dependent_eqElS2_N9__gnu_cxx5__ops15_Iter_comp_iterIZNS0_17solve_context_eqs25collect_nested_equalitiesER6vectorIS1_Lb1EjEE3$_0EEEvT_SC_SC_T0_SD_T1_SD_T2_"(ptr noundef %20, ptr noundef %21, ptr noundef %22, i64 noundef %sub.ptr.div7, i64 noundef %sub.ptr.div11, ptr noundef %27, i64 noundef %28)
  ret void
}