; Function Attrs: mustprogress uwtable
define internal fastcc void @"_ZSt22__stable_sort_adaptiveIPN3euf12dependent_eqES2_lN9__gnu_cxx5__ops15_Iter_comp_iterIZNS0_17solve_context_eqs25collect_nested_equalitiesER6vectorIS1_Lb1EjEE3$_0EEEvT_SC_T0_T1_T2_"(ptr noundef %__first, ptr noundef %__last, ptr noundef %__buffer, i64 noundef %__buffer_size) unnamed_addr #5 {
entry:
  %sub.ptr.lhs.cast = ptrtoint ptr %__last to i64
  %sub.ptr.rhs.cast = ptrtoint ptr %__first to i64
  %sub.ptr.sub = sub i64 %sub.ptr.lhs.cast, %sub.ptr.rhs.cast
  %sub.ptr.div = sdiv exact i64 %sub.ptr.sub, 40
  %add = add nsw i64 %sub.ptr.div, 1
  %div = sdiv i64 %add, 2
  %add.ptr = getelementptr inbounds %"struct.euf::dependent_eq", ptr %__first, i64 %div
  %cmp = icmp sgt i64 %div, %__buffer_size
  br i1 %cmp, label %if.then, label %if.else

if.then:                                          ; preds = %entry
  tail call fastcc void @"_ZSt22__stable_sort_adaptiveIPN3euf12dependent_eqES2_lN9__gnu_cxx5__ops15_Iter_comp_iterIZNS0_17solve_context_eqs25collect_nested_equalitiesER6vectorIS1_Lb1EjEE3$_0EEEvT_SC_T0_T1_T2_"(ptr noundef %__first, ptr noundef %add.ptr, ptr noundef %__buffer, i64 noundef %__buffer_size)
  tail call fastcc void @"_ZSt22__stable_sort_adaptiveIPN3euf12dependent_eqES2_lN9__gnu_cxx5__ops15_Iter_comp_iterIZNS0_17solve_context_eqs25collect_nested_equalitiesER6vectorIS1_Lb1EjEE3$_0EEEvT_SC_T0_T1_T2_"(ptr noundef %add.ptr, ptr noundef %__last, ptr noundef %__buffer, i64 noundef %__buffer_size)
  br label %if.end

if.else:                                          ; preds = %entry
  tail call fastcc void @"_ZSt24__merge_sort_with_bufferIPN3euf12dependent_eqES2_N9__gnu_cxx5__ops15_Iter_comp_iterIZNS0_17solve_context_eqs25collect_nested_equalitiesER6vectorIS1_Lb1EjEE3$_0EEEvT_SC_T0_T1_"(ptr noundef %__first, ptr noundef %add.ptr, ptr noundef %__buffer)
  tail call fastcc void @"_ZSt24__merge_sort_with_bufferIPN3euf12dependent_eqES2_N9__gnu_cxx5__ops15_Iter_comp_iterIZNS0_17solve_context_eqs25collect_nested_equalitiesER6vectorIS1_Lb1EjEE3$_0EEEvT_SC_T0_T1_"(ptr noundef %add.ptr, ptr noundef %__last, ptr noundef %__buffer)
  br label %if.end

if.end:                                           ; preds = %if.else, %if.then
  %sub.ptr.lhs.cast4 = ptrtoint ptr %add.ptr to i64
  %sub.ptr.sub10 = sub i64 %sub.ptr.lhs.cast, %sub.ptr.lhs.cast4
  %sub.ptr.div11 = sdiv exact i64 %sub.ptr.sub10, 40
  tail call fastcc void @"_ZSt16__merge_adaptiveIPN3euf12dependent_eqElS2_N9__gnu_cxx5__ops15_Iter_comp_iterIZNS0_17solve_context_eqs25collect_nested_equalitiesER6vectorIS1_Lb1EjEE3$_0EEEvT_SC_SC_T0_SD_T1_SD_T2_"(ptr noundef %__first, ptr noundef %add.ptr, ptr noundef %__last, i64 noundef %div, i64 noundef %sub.ptr.div11, ptr noundef %__buffer, i64 noundef %__buffer_size)
  ret void
}